target datalayout = "e-m:e-p270:32:32-p271:32:32-p272:64:64-i64:64-i128:128-f80:128-n8:16:32:64-S128"
target triple = "x86_64-pc-linux-gnu"

%struct.vorbis_context_s = type { ptr, %struct.GetBitContext, %struct.VorbisDSPContext, ptr, [2 x ptr], [2 x ptr], i8, i32, i8, i32, i32, i32, i32, [2 x i32], [2 x ptr], i16, ptr, i8, ptr, i8, ptr, i8, ptr, i8, ptr, i8, i8, ptr, ptr }
%struct.GetBitContext = type { ptr, ptr, i32, i32, i32 }
%struct.VorbisDSPContext = type { ptr }
%struct.vorbis_mode = type { i8, i16, i16, i8 }

@idx_err_str = internal constant [54 x i8] c"Index value %d out of range (0 - %d) for %s at %s:%i\0A\00", align 16
@.str.31 = private unnamed_addr constant [23 x i8] c"libavcodec/vorbisdec.c\00", align 1
@.str.51 = private unnamed_addr constant [20 x i8] c"mode_setup->mapping\00", align 1

; Function Attrs: inlinehint nounwind willreturn memory(none) uwtable
define internal i32 @zero_extend(i32 noundef %0, i32 noundef %1) #5 {
  %3 = alloca i32, align 4
  %4 = alloca i32, align 4
  store i32 %0, ptr %3, align 4, !tbaa !34
  store i32 %1, ptr %4, align 4, !tbaa !34
  %5 = load i32, ptr %3, align 4, !tbaa !34
  %6 = load i32, ptr %4, align 4, !tbaa !34
  %7 = zext i32 %6 to i64
  %8 = sub i64 32, %7
  %9 = trunc i64 %8 to i32
  %10 = shl i32 %5, %9
  %11 = load i32, ptr %4, align 4, !tbaa !34
  %12 = zext i32 %11 to i64
  %13 = sub i64 32, %12
  %14 = trunc i64 %13 to i32
  %15 = lshr i32 %10, %14
  ret i32 %15
}

; Function Attrs: inlinehint nounwind uwtable
define internal i32 @get_bits1(ptr noundef %0) #4 {
  %2 = alloca ptr, align 8
  %3 = alloca i32, align 4
  %4 = alloca i8, align 1
  store ptr %0, ptr %2, align 8, !tbaa !35
  call void @llvm.lifetime.start.p0(i64 4, ptr %3) #13
  %5 = load ptr, ptr %2, align 8, !tbaa !35
  %6 = getelementptr inbounds nuw %struct.GetBitContext, ptr %5, i32 0, i32 2
  %7 = load i32, ptr %6, align 8, !tbaa !89
  store i32 %7, ptr %3, align 4, !tbaa !34
  call void @llvm.lifetime.start.p0(i64 1, ptr %4) #13
  %8 = load ptr, ptr %2, align 8, !tbaa !35
  %9 = getelementptr inbounds nuw %struct.GetBitContext, ptr %8, i32 0, i32 0
  %10 = load ptr, ptr %9, align 8, !tbaa !85
  %11 = load i32, ptr %3, align 4, !tbaa !34
  %12 = lshr i32 %11, 3
  %13 = zext i32 %12 to i64
  %14 = getelementptr inbounds nuw i8, ptr %10, i64 %13
  %15 = load i8, ptr %14, align 1, !tbaa !63
  store i8 %15, ptr %4, align 1, !tbaa !63
  %16 = load i32, ptr %3, align 4, !tbaa !34
  %17 = and i32 %16, 7
  %18 = load i8, ptr %4, align 1, !tbaa !63
  %19 = zext i8 %18 to i32
  %20 = ashr i32 %19, %17
  %21 = trunc i32 %20 to i8
  store i8 %21, ptr %4, align 1, !tbaa !63
  %22 = load i8, ptr %4, align 1, !tbaa !63
  %23 = zext i8 %22 to i32
  %24 = and i32 %23, 1
  %25 = trunc i32 %24 to i8
  store i8 %25, ptr %4, align 1, !tbaa !63
  %26 = load ptr, ptr %2, align 8, !tbaa !35
  %27 = getelementptr inbounds nuw %struct.GetBitContext, ptr %26, i32 0, i32 2
  %28 = load i32, ptr %27, align 8, !tbaa !89
  %29 = load ptr, ptr %2, align 8, !tbaa !35
  %30 = getelementptr inbounds nuw %struct.GetBitContext, ptr %29, i32 0, i32 4
  %31 = load i32, ptr %30, align 8, !tbaa !87
  %32 = icmp slt i32 %28, %31
  br i1 %32, label %33, label %36

33:                                               ; preds = %1
  %34 = load i32, ptr %3, align 4, !tbaa !34
  %35 = add i32 %34, 1
  store i32 %35, ptr %3, align 4, !tbaa !34
  br label %36

36:                                               ; preds = %33, %1
  %37 = load i32, ptr %3, align 4, !tbaa !34
  %38 = load ptr, ptr %2, align 8, !tbaa !35
  %39 = getelementptr inbounds nuw %struct.GetBitContext, ptr %38, i32 0, i32 2
  store i32 %37, ptr %39, align 8, !tbaa !89
  %40 = load i8, ptr %4, align 1, !tbaa !63
  %41 = zext i8 %40 to i32
  call void @llvm.lifetime.end.p0(i64 1, ptr %4) #13
  call void @llvm.lifetime.end.p0(i64 4, ptr %3) #13
  ret i32 %41
}

; Function Attrs: inlinehint nounwind uwtable
define internal i32 @get_bits(ptr noundef %0, i32 noundef %1) #4 {
  %3 = alloca ptr, align 8
  %4 = alloca i32, align 4
  %5 = alloca i32, align 4
  %6 = alloca i32, align 4
  %7 = alloca i32, align 4
  %8 = alloca i32, align 4
  store ptr %0, ptr %3, align 8, !tbaa !35
  store i32 %1, ptr %4, align 4, !tbaa !34
  call void @llvm.lifetime.start.p0(i64 4, ptr %5) #13
  call void @llvm.lifetime.start.p0(i64 4, ptr %6) #13
  %9 = load ptr, ptr %3, align 8, !tbaa !35
  %10 = getelementptr inbounds nuw %struct.GetBitContext, ptr %9, i32 0, i32 2
  %11 = load i32, ptr %10, align 8, !tbaa !89
  store i32 %11, ptr %6, align 4, !tbaa !34
  call void @llvm.lifetime.start.p0(i64 4, ptr %7) #13
  call void @llvm.lifetime.start.p0(i64 4, ptr %8) #13
  %12 = load ptr, ptr %3, align 8, !tbaa !35
  %13 = getelementptr inbounds nuw %struct.GetBitContext, ptr %12, i32 0, i32 4
  %14 = load i32, ptr %13, align 8, !tbaa !87
  store i32 %14, ptr %8, align 4, !tbaa !34
  %15 = load ptr, ptr %3, align 8, !tbaa !35
  %16 = getelementptr inbounds nuw %struct.GetBitContext, ptr %15, i32 0, i32 0
  %17 = load ptr, ptr %16, align 8, !tbaa !85
  %18 = load i32, ptr %6, align 4, !tbaa !34
  %19 = lshr i32 %18, 3
  %20 = zext i32 %19 to i64
  %21 = getelementptr inbounds nuw i8, ptr %17, i64 %20
  %22 = load i32, ptr %21, align 1, !tbaa !63
  %23 = load i32, ptr %6, align 4, !tbaa !34
  %24 = and i32 %23, 7
  %25 = lshr i32 %22, %24
  store i32 %25, ptr %7, align 4, !tbaa !34
  %26 = load i32, ptr %7, align 4, !tbaa !34
  %27 = load i32, ptr %4, align 4, !tbaa !34
  %28 = call i32 @zero_extend(i32 noundef %26, i32 noundef %27) #14
  store i32 %28, ptr %5, align 4, !tbaa !34
  %29 = load i32, ptr %8, align 4, !tbaa !34
  %30 = load i32, ptr %6, align 4, !tbaa !34
  %31 = load i32, ptr %4, align 4, !tbaa !34
  %32 = add i32 %30, %31
  %33 = icmp ugt i32 %29, %32
  br i1 %33, label %34, label %38

34:                                               ; preds = %2
  %35 = load i32, ptr %6, align 4, !tbaa !34
  %36 = load i32, ptr %4, align 4, !tbaa !34
  %37 = add i32 %35, %36
  br label %40

38:                                               ; preds = %2
  %39 = load i32, ptr %8, align 4, !tbaa !34
  br label %40

40:                                               ; preds = %38, %34
  %41 = phi i32 [ %37, %34 ], [ %39, %38 ]
  store i32 %41, ptr %6, align 4, !tbaa !34
  %42 = load i32, ptr %6, align 4, !tbaa !34
  %43 = load ptr, ptr %3, align 8, !tbaa !35
  %44 = getelementptr inbounds nuw %struct.GetBitContext, ptr %43, i32 0, i32 2
  store i32 %42, ptr %44, align 8, !tbaa !89
  %45 = load i32, ptr %5, align 4, !tbaa !34
  call void @llvm.lifetime.end.p0(i64 4, ptr %8) #13
  call void @llvm.lifetime.end.p0(i64 4, ptr %7) #13
  call void @llvm.lifetime.end.p0(i64 4, ptr %6) #13
  call void @llvm.lifetime.end.p0(i64 4, ptr %5) #13
  ret i32 %45
}

; Function Attrs: nounwind uwtable
define internal i32 @vorbis_parse_setup_hdr_modes(ptr noundef %0) #1 {
  %2 = alloca i32, align 4
  %3 = alloca ptr, align 8
  %4 = alloca ptr, align 8
  %5 = alloca i32, align 4
  %6 = alloca i32, align 4
  %7 = alloca ptr, align 8
  store ptr %0, ptr %3, align 8, !tbaa !29
  call void @llvm.lifetime.start.p0(i64 8, ptr %4) #13
  %8 = load ptr, ptr %3, align 8, !tbaa !29
  %9 = getelementptr inbounds nuw %struct.vorbis_context_s, ptr %8, i32 0, i32 1
  store ptr %9, ptr %4, align 8, !tbaa !35
  call void @llvm.lifetime.start.p0(i64 4, ptr %5) #13
  %10 = load ptr, ptr %4, align 8, !tbaa !35
  %11 = call i32 @get_bits(ptr noundef %10, i32 noundef 6)
  %12 = add i32 %11, 1
  %13 = trunc i32 %12 to i8
  %14 = load ptr, ptr %3, align 8, !tbaa !29
  %15 = getelementptr inbounds nuw %struct.vorbis_context_s, ptr %14, i32 0, i32 23
  store i8 %13, ptr %15, align 8, !tbaa !172
  %16 = load ptr, ptr %3, align 8, !tbaa !29
  %17 = getelementptr inbounds nuw %struct.vorbis_context_s, ptr %16, i32 0, i32 23
  %18 = load i8, ptr %17, align 8, !tbaa !172
  %19 = zext i8 %18 to i64
  %20 = mul i64 %19, 8
  %21 = call noalias ptr @av_mallocz(i64 noundef %20)
  %22 = load ptr, ptr %3, align 8, !tbaa !29
  %23 = getelementptr inbounds nuw %struct.vorbis_context_s, ptr %22, i32 0, i32 24
  store ptr %21, ptr %23, align 8, !tbaa !65
  %24 = load ptr, ptr %3, align 8, !tbaa !29
  %25 = getelementptr inbounds nuw %struct.vorbis_context_s, ptr %24, i32 0, i32 24
  %26 = load ptr, ptr %25, align 8, !tbaa !65
  %27 = icmp ne ptr %26, null
  br i1 %27, label %29, label %28

28:                                               ; preds = %1
  store i32 -12, ptr %2, align 4
  store i32 1, ptr %6, align 4
  br label %100

29:                                               ; preds = %1
  br label %30

30:                                               ; preds = %29
  br label %31

31:                                               ; preds = %30
  br label %32

32:                                               ; preds = %31
  store i32 0, ptr %5, align 4, !tbaa !34
  br label %33

33:                                               ; preds = %96, %32
  %34 = load i32, ptr %5, align 4, !tbaa !34
  %35 = load ptr, ptr %3, align 8, !tbaa !29
  %36 = getelementptr inbounds nuw %struct.vorbis_context_s, ptr %35, i32 0, i32 23
  %37 = load i8, ptr %36, align 8, !tbaa !172
  %38 = zext i8 %37 to i32
  %39 = icmp ult i32 %34, %38
  br i1 %39, label %40, label %99

40:                                               ; preds = %33
  call void @llvm.lifetime.start.p0(i64 8, ptr %7) #13
  %41 = load ptr, ptr %3, align 8, !tbaa !29
  %42 = getelementptr inbounds nuw %struct.vorbis_context_s, ptr %41, i32 0, i32 24
  %43 = load ptr, ptr %42, align 8, !tbaa !65
  %44 = load i32, ptr %5, align 4, !tbaa !34
  %45 = zext i32 %44 to i64
  %46 = getelementptr inbounds nuw %struct.vorbis_mode, ptr %43, i64 %45
  store ptr %46, ptr %7, align 8, !tbaa !173
  %47 = load ptr, ptr %4, align 8, !tbaa !35
  %48 = call i32 @get_bits1(ptr noundef %47)
  %49 = trunc i32 %48 to i8
  %50 = load ptr, ptr %7, align 8, !tbaa !173
  %51 = getelementptr inbounds nuw %struct.vorbis_mode, ptr %50, i32 0, i32 0
  store i8 %49, ptr %51, align 2, !tbaa !174
  %52 = load ptr, ptr %4, align 8, !tbaa !35
  %53 = call i32 @get_bits(ptr noundef %52, i32 noundef 16)
  %54 = trunc i32 %53 to i16
  %55 = load ptr, ptr %7, align 8, !tbaa !173
  %56 = getelementptr inbounds nuw %struct.vorbis_mode, ptr %55, i32 0, i32 1
  store i16 %54, ptr %56, align 2, !tbaa !176
  %57 = load ptr, ptr %4, align 8, !tbaa !35
  %58 = call i32 @get_bits(ptr noundef %57, i32 noundef 16)
  %59 = trunc i32 %58 to i16
  %60 = load ptr, ptr %7, align 8, !tbaa !173
  %61 = getelementptr inbounds nuw %struct.vorbis_mode, ptr %60, i32 0, i32 2
  store i16 %59, ptr %61, align 2, !tbaa !177
  %62 = load ptr, ptr %4, align 8, !tbaa !35
  %63 = call i32 @get_bits(ptr noundef %62, i32 noundef 8)
  %64 = trunc i32 %63 to i8
  %65 = load ptr, ptr %7, align 8, !tbaa !173
  %66 = getelementptr inbounds nuw %struct.vorbis_mode, ptr %65, i32 0, i32 3
  store i8 %64, ptr %66, align 2, !tbaa !178
  %67 = load ptr, ptr %7, align 8, !tbaa !173
  %68 = getelementptr inbounds nuw %struct.vorbis_mode, ptr %67, i32 0, i32 3
  %69 = load i8, ptr %68, align 2, !tbaa !178
  %70 = zext i8 %69 to i32
  %71 = load ptr, ptr %3, align 8, !tbaa !29
  %72 = getelementptr inbounds nuw %struct.vorbis_context_s, ptr %71, i32 0, i32 21
  %73 = load i8, ptr %72, align 8, !tbaa !109
  %74 = zext i8 %73 to i32
  %75 = icmp sge i32 %70, %74
  br i1 %75, label %76, label %89

76:                                               ; preds = %40
  %77 = load ptr, ptr %3, align 8, !tbaa !29
  %78 = getelementptr inbounds nuw %struct.vorbis_context_s, ptr %77, i32 0, i32 0
  %79 = load ptr, ptr %78, align 8, !tbaa !37
  %80 = load ptr, ptr %7, align 8, !tbaa !173
  %81 = getelementptr inbounds nuw %struct.vorbis_mode, ptr %80, i32 0, i32 3
  %82 = load i8, ptr %81, align 2, !tbaa !178
  %83 = zext i8 %82 to i32
  %84 = load ptr, ptr %3, align 8, !tbaa !29
  %85 = getelementptr inbounds nuw %struct.vorbis_context_s, ptr %84, i32 0, i32 21
  %86 = load i8, ptr %85, align 8, !tbaa !109
  %87 = zext i8 %86 to i32
  %88 = sub nsw i32 %87, 1
  call void (ptr, i32, ptr, ...) @av_log(ptr noundef %79, i32 noundef 16, ptr noundef @idx_err_str, i32 noundef %83, i32 noundef %88, ptr noundef @.str.51, ptr noundef @.str.31, i32 noundef 913)
  store i32 -1094995529, ptr %2, align 4
  store i32 1, ptr %6, align 4
  br label %93

89:                                               ; preds = %40
  br label %90

90:                                               ; preds = %89
  br label %91

91:                                               ; preds = %90
  br label %92

92:                                               ; preds = %91
  store i32 0, ptr %6, align 4
  br label %93

93:                                               ; preds = %92, %76
  call void @llvm.lifetime.end.p0(i64 8, ptr %7) #13
  %94 = load i32, ptr %6, align 4
  switch i32 %94, label %100 [
    i32 0, label %95
  ]

95:                                               ; preds = %93
  br label %96

96:                                               ; preds = %95
  %97 = load i32, ptr %5, align 4, !tbaa !34
  %98 = add i32 %97, 1
  store i32 %98, ptr %5, align 4, !tbaa !34
  br label %33, !llvm.loop !179

99:                                               ; preds = %33
  store i32 0, ptr %2, align 4
  store i32 1, ptr %6, align 4
  br label %100

100:                                              ; preds = %99, %93, %28
  call void @llvm.lifetime.end.p0(i64 4, ptr %5) #13
  call void @llvm.lifetime.end.p0(i64 8, ptr %4) #13
  %101 = load i32, ptr %2, align 4
  ret i32 %101
}