; Function Attrs: nounwind uwtable
define internal fastcc range(i32 -1094995529, 1) i32 @vorbis_parse_setup_hdr_modes(ptr noundef captures(none) initializes((208, 209), (216, 224)) %0) unnamed_addr #1 {
  %2 = getelementptr inbounds nuw i8, ptr %0, i64 8
  %3 = getelementptr inbounds nuw i8, ptr %0, i64 24
  %4 = load i32, ptr %3, align 8, !tbaa !49
  %5 = getelementptr inbounds nuw i8, ptr %0, i64 32
  %6 = load i32, ptr %5, align 8, !tbaa !47
  %7 = load ptr, ptr %2, align 8, !tbaa !45
  %8 = lshr i32 %4, 3
  %9 = zext nneg i32 %8 to i64
  %10 = getelementptr inbounds nuw i8, ptr %7, i64 %9
  %11 = load i32, ptr %10, align 1, !tbaa !50
  %12 = and i32 %4, 7
  %13 = lshr i32 %11, %12
  %14 = add i32 %4, 6
  %15 = tail call i32 @llvm.umin.i32(i32 %6, i32 %14)
  store i32 %15, ptr %3, align 8, !tbaa !49
  %16 = trunc i32 %13 to i8
  %17 = and i8 %16, 63
  %18 = add nuw nsw i8 %17, 1
  %19 = getelementptr inbounds nuw i8, ptr %0, i64 208
  store i8 %18, ptr %19, align 8, !tbaa !72
  %20 = zext nneg i8 %18 to i64
  %21 = shl nuw nsw i64 %20, 3
  %22 = tail call noalias ptr @av_mallocz(i64 noundef %21) #11
  %23 = getelementptr inbounds nuw i8, ptr %0, i64 216
  store ptr %22, ptr %23, align 8, !tbaa !60
  %.not = icmp eq ptr %22, null
  br i1 %.not, label %.loopexit, label %.preheader

.preheader:                                       ; preds = %1
  %24 = load i8, ptr %19, align 8, !tbaa !72
  %.not33 = icmp eq i8 %24, 0
  br i1 %.not33, label %.loopexit, label %.critedge.lr.ph

.critedge.lr.ph:                                  ; preds = %.preheader
  %25 = load ptr, ptr %2, align 8, !tbaa !45
  %26 = load i32, ptr %5, align 8, !tbaa !47
  %27 = getelementptr inbounds nuw i8, ptr %0, i64 192
  %28 = load i8, ptr %27, align 8, !tbaa !166
  %29 = zext i8 %28 to i32
  %.promoted = load i32, ptr %3, align 8, !tbaa !49
  %wide.trip.count = zext i8 %24 to i64
  br label %.critedge

30:                                               ; preds = %.critedge
  %indvars.iv.next = add nuw nsw i64 %indvars.iv, 1
  %exitcond.not = icmp eq i64 %indvars.iv.next, %wide.trip.count
  br i1 %exitcond.not, label %.loopexit, label %.critedge, !llvm.loop !203

.critedge:                                        ; preds = %.critedge.lr.ph, %30
  %indvars.iv = phi i64 [ 0, %.critedge.lr.ph ], [ %indvars.iv.next, %30 ]
  %spec.select.i32 = phi i32 [ %.promoted, %.critedge.lr.ph ], [ %71, %30 ]
  %31 = getelementptr inbounds nuw %struct.vorbis_mode, ptr %22, i64 %indvars.iv
  %32 = lshr i32 %spec.select.i32, 3
  %33 = zext nneg i32 %32 to i64
  %34 = getelementptr inbounds nuw i8, ptr %25, i64 %33
  %35 = load i8, ptr %34, align 1, !tbaa !50
  %36 = icmp slt i32 %spec.select.i32, %26
  %37 = zext i1 %36 to i32
  %spec.select.i = add i32 %spec.select.i32, %37
  %38 = zext i8 %35 to i32
  %39 = and i32 %spec.select.i32, 7
  %40 = lshr i32 %38, %39
  store i32 %spec.select.i, ptr %3, align 8, !tbaa !49
  %41 = trunc nuw i32 %40 to i8
  %42 = and i8 %41, 1
  store i8 %42, ptr %31, align 2, !tbaa !77
  %43 = lshr i32 %spec.select.i, 3
  %44 = zext nneg i32 %43 to i64
  %45 = getelementptr inbounds nuw i8, ptr %25, i64 %44
  %46 = load i32, ptr %45, align 1, !tbaa !50
  %47 = and i32 %spec.select.i, 7
  %48 = lshr i32 %46, %47
  %49 = add i32 %spec.select.i, 16
  %50 = tail call i32 @llvm.umin.i32(i32 %26, i32 %49)
  store i32 %50, ptr %3, align 8, !tbaa !49
  %51 = trunc i32 %48 to i16
  %52 = getelementptr inbounds nuw i8, ptr %31, i64 2
  store i16 %51, ptr %52, align 2, !tbaa !204
  %53 = lshr i32 %50, 3
  %54 = zext nneg i32 %53 to i64
  %55 = getelementptr inbounds nuw i8, ptr %25, i64 %54
  %56 = load i32, ptr %55, align 1, !tbaa !50
  %57 = and i32 %50, 7
  %58 = lshr i32 %56, %57
  %59 = add i32 %50, 16
  %60 = tail call i32 @llvm.umin.i32(i32 %26, i32 %59)
  store i32 %60, ptr %3, align 8, !tbaa !49
  %61 = trunc i32 %58 to i16
  %62 = getelementptr inbounds nuw i8, ptr %31, i64 4
  store i16 %61, ptr %62, align 2, !tbaa !205
  %63 = lshr i32 %60, 3
  %64 = zext nneg i32 %63 to i64
  %65 = getelementptr inbounds nuw i8, ptr %25, i64 %64
  %66 = load i32, ptr %65, align 1, !tbaa !50
  %67 = and i32 %60, 7
  %68 = lshr i32 %66, %67
  %69 = and i32 %68, 255
  %70 = add i32 %60, 8
  %71 = tail call i32 @llvm.umin.i32(i32 %26, i32 %70)
  store i32 %71, ptr %3, align 8, !tbaa !49
  %72 = trunc i32 %68 to i8
  %73 = getelementptr inbounds nuw i8, ptr %31, i64 6
  store i8 %72, ptr %73, align 2, !tbaa !75
  %.not29 = icmp samesign ult i32 %69, %29
  br i1 %.not29, label %30, label %74

74:                                               ; preds = %.critedge
  %75 = load ptr, ptr %0, align 8, !tbaa !29
  %76 = add nsw i32 %29, -1
  tail call void (ptr, i32, ptr, ...) @av_log(ptr noundef %75, i32 noundef 16, ptr noundef nonnull @idx_err_str, i32 noundef %69, i32 noundef %76, ptr noundef nonnull @.str.51, ptr noundef nonnull @.str.31, i32 noundef 913) #11
  br label %.loopexit

.loopexit:                                        ; preds = %30, %.preheader, %74, %1
  %.0 = phi i32 [ -1094995529, %74 ], [ -12, %1 ], [ 0, %.preheader ], [ 0, %30 ]
  ret i32 %.0
}